
sprints_interface.elf:     file format elf32-avr

Sections:
Idx Name          Size      VMA       LMA       File off  Algn
  0 .text         000004d0  00000000  00000000  00000074  2**1
                  CONTENTS, ALLOC, LOAD, READONLY, CODE
  1 .data         00000020  00800060  000004d0  00000544  2**0
                  CONTENTS, ALLOC, LOAD, DATA
  2 .comment      00000030  00000000  00000000  00000564  2**0
                  CONTENTS, READONLY
  3 .note.gnu.avr.deviceinfo 0000003c  00000000  00000000  00000594  2**2
                  CONTENTS, READONLY
  4 .debug_info   000004e6  00000000  00000000  000005d0  2**0
                  CONTENTS, READONLY, DEBUGGING
  5 .debug_abbrev 000004a3  00000000  00000000  00000ab6  2**0
                  CONTENTS, READONLY, DEBUGGING
  6 .debug_line   00000116  00000000  00000000  00000f59  2**0
                  CONTENTS, READONLY, DEBUGGING
  7 .debug_str    00000196  00000000  00000000  0000106f  2**0
                  CONTENTS, READONLY, DEBUGGING

Disassembly of section .text:

00000000 <__vectors>:
   0:	0c 94 2a 00 	jmp	0x54	; 0x54 <__ctors_end>
   4:	0c 94 3f 00 	jmp	0x7e	; 0x7e <__bad_interrupt>
   8:	0c 94 3f 00 	jmp	0x7e	; 0x7e <__bad_interrupt>
   c:	0c 94 3f 00 	jmp	0x7e	; 0x7e <__bad_interrupt>
  10:	0c 94 3f 00 	jmp	0x7e	; 0x7e <__bad_interrupt>
  14:	0c 94 3f 00 	jmp	0x7e	; 0x7e <__bad_interrupt>
  18:	0c 94 3f 00 	jmp	0x7e	; 0x7e <__bad_interrupt>
  1c:	0c 94 3f 00 	jmp	0x7e	; 0x7e <__bad_interrupt>
  20:	0c 94 3f 00 	jmp	0x7e	; 0x7e <__bad_interrupt>
  24:	0c 94 3f 00 	jmp	0x7e	; 0x7e <__bad_interrupt>
  28:	0c 94 3f 00 	jmp	0x7e	; 0x7e <__bad_interrupt>
  2c:	0c 94 3f 00 	jmp	0x7e	; 0x7e <__bad_interrupt>
  30:	0c 94 3f 00 	jmp	0x7e	; 0x7e <__bad_interrupt>
  34:	0c 94 3f 00 	jmp	0x7e	; 0x7e <__bad_interrupt>
  38:	0c 94 3f 00 	jmp	0x7e	; 0x7e <__bad_interrupt>
  3c:	0c 94 3f 00 	jmp	0x7e	; 0x7e <__bad_interrupt>
  40:	0c 94 3f 00 	jmp	0x7e	; 0x7e <__bad_interrupt>
  44:	0c 94 3f 00 	jmp	0x7e	; 0x7e <__bad_interrupt>
  48:	0c 94 3f 00 	jmp	0x7e	; 0x7e <__bad_interrupt>
  4c:	0c 94 3f 00 	jmp	0x7e	; 0x7e <__bad_interrupt>
  50:	0c 94 3f 00 	jmp	0x7e	; 0x7e <__bad_interrupt>

00000054 <__ctors_end>:
  54:	11 24       	eor	r1, r1
  56:	1f be       	out	0x3f, r1	; 63
  58:	cf e5       	ldi	r28, 0x5F	; 95
  5a:	d8 e0       	ldi	r29, 0x08	; 8
  5c:	de bf       	out	0x3e, r29	; 62
  5e:	cd bf       	out	0x3d, r28	; 61

00000060 <__do_copy_data>:
  60:	10 e0       	ldi	r17, 0x00	; 0
  62:	a0 e6       	ldi	r26, 0x60	; 96
  64:	b0 e0       	ldi	r27, 0x00	; 0
  66:	e0 ed       	ldi	r30, 0xD0	; 208
  68:	f4 e0       	ldi	r31, 0x04	; 4
  6a:	02 c0       	rjmp	.+4      	; 0x70 <__do_copy_data+0x10>
  6c:	05 90       	lpm	r0, Z+
  6e:	0d 92       	st	X+, r0
  70:	a0 38       	cpi	r26, 0x80	; 128
  72:	b1 07       	cpc	r27, r17
  74:	d9 f7       	brne	.-10     	; 0x6c <__do_copy_data+0xc>
  76:	0e 94 b1 00 	call	0x162	; 0x162 <main>
  7a:	0c 94 66 02 	jmp	0x4cc	; 0x4cc <_exit>

0000007e <__bad_interrupt>:
  7e:	0c 94 00 00 	jmp	0	; 0x0 <__vectors>

00000082 <app_start>:
  82:	cf 93       	push	r28
  84:	df 93       	push	r29
  86:	1f 92       	push	r1
  88:	cd b7       	in	r28, 0x3d	; 61
  8a:	de b7       	in	r29, 0x3e	; 62
  8c:	88 e0       	ldi	r24, 0x08	; 8
  8e:	0e 94 a8 00 	call	0x150	; 0x150 <LED_init>
  92:	89 e0       	ldi	r24, 0x09	; 9
  94:	0e 94 a8 00 	call	0x150	; 0x150 <LED_init>
  98:	8a e0       	ldi	r24, 0x0A	; 10
  9a:	0e 94 a8 00 	call	0x150	; 0x150 <LED_init>
  9e:	8b e0       	ldi	r24, 0x0B	; 11
  a0:	0e 94 a8 00 	call	0x150	; 0x150 <LED_init>
  a4:	81 e0       	ldi	r24, 0x01	; 1
  a6:	89 83       	std	Y+1, r24	; 0x01
  a8:	00 e0       	ldi	r16, 0x00	; 0
  aa:	10 e0       	ldi	r17, 0x00	; 0
  ac:	be 01       	movw	r22, r28
  ae:	6f 5f       	subi	r22, 0xFF	; 255
  b0:	7f 4f       	sbci	r23, 0xFF	; 255
  b2:	8f e1       	ldi	r24, 0x1F	; 31
  b4:	0e 94 a6 00 	call	0x14c	; 0x14c <BUTTON_read>
  b8:	89 81       	ldd	r24, Y+1	; 0x01
  ba:	81 11       	cpse	r24, r1
  bc:	f7 cf       	rjmp	.-18     	; 0xac <app_start+0x2a>
  be:	04 30       	cpi	r16, 0x04	; 4
  c0:	11 05       	cpc	r17, r1
  c2:	44 f0       	brlt	.+16     	; 0xd4 <app_start+0x52>
  c4:	88 e0       	ldi	r24, 0x08	; 8
  c6:	f8 2e       	mov	r15, r24
  c8:	cc 24       	eor	r12, r12
  ca:	c3 94       	inc	r12
  cc:	d1 2c       	mov	r13, r1
  ce:	03 e0       	ldi	r16, 0x03	; 3
  d0:	10 e0       	ldi	r17, 0x00	; 0
  d2:	19 c0       	rjmp	.+50     	; 0x106 <app_start+0x84>
  d4:	88 e0       	ldi	r24, 0x08	; 8
  d6:	80 0f       	add	r24, r16
  d8:	0e 94 ab 00 	call	0x156	; 0x156 <LED_on>
  dc:	0f 5f       	subi	r16, 0xFF	; 255
  de:	1f 4f       	sbci	r17, 0xFF	; 255
  e0:	2f ef       	ldi	r18, 0xFF	; 255
  e2:	82 e5       	ldi	r24, 0x52	; 82
  e4:	97 e0       	ldi	r25, 0x07	; 7
  e6:	21 50       	subi	r18, 0x01	; 1
  e8:	80 40       	sbci	r24, 0x00	; 0
  ea:	90 40       	sbci	r25, 0x00	; 0
  ec:	e1 f7       	brne	.-8      	; 0xe6 <app_start+0x64>
  ee:	00 c0       	rjmp	.+0      	; 0xf0 <app_start+0x6e>
  f0:	00 00       	nop
  f2:	dc cf       	rjmp	.-72     	; 0xac <app_start+0x2a>
  f4:	be 01       	movw	r22, r28
  f6:	6f 5f       	subi	r22, 0xFF	; 255
  f8:	7f 4f       	sbci	r23, 0xFF	; 255
  fa:	8f e1       	ldi	r24, 0x1F	; 31
  fc:	0e 94 a6 00 	call	0x14c	; 0x14c <BUTTON_read>
 100:	89 81       	ldd	r24, Y+1	; 0x01
 102:	88 23       	and	r24, r24
 104:	21 f0       	breq	.+8      	; 0x10e <app_start+0x8c>
 106:	c1 14       	cp	r12, r1
 108:	d1 04       	cpc	r13, r1
 10a:	a1 f7       	brne	.-24     	; 0xf4 <app_start+0x72>
 10c:	15 c0       	rjmp	.+42     	; 0x138 <app_start+0xb6>
 10e:	8f 2d       	mov	r24, r15
 110:	0e 94 ae 00 	call	0x15c	; 0x15c <LED_off>
 114:	01 50       	subi	r16, 0x01	; 1
 116:	11 09       	sbc	r17, r1
 118:	17 fd       	sbrc	r17, 7
 11a:	0a c0       	rjmp	.+20     	; 0x130 <app_start+0xae>
 11c:	2f ef       	ldi	r18, 0xFF	; 255
 11e:	82 e5       	ldi	r24, 0x52	; 82
 120:	97 e0       	ldi	r25, 0x07	; 7
 122:	21 50       	subi	r18, 0x01	; 1
 124:	80 40       	sbci	r24, 0x00	; 0
 126:	90 40       	sbci	r25, 0x00	; 0
 128:	e1 f7       	brne	.-8      	; 0x122 <app_start+0xa0>
 12a:	00 c0       	rjmp	.+0      	; 0x12c <app_start+0xaa>
 12c:	00 00       	nop
 12e:	02 c0       	rjmp	.+4      	; 0x134 <app_start+0xb2>
 130:	c1 2c       	mov	r12, r1
 132:	d1 2c       	mov	r13, r1
 134:	f3 94       	inc	r15
 136:	e7 cf       	rjmp	.-50     	; 0x106 <app_start+0x84>
 138:	2f ef       	ldi	r18, 0xFF	; 255
 13a:	82 e5       	ldi	r24, 0x52	; 82
 13c:	97 e0       	ldi	r25, 0x07	; 7
 13e:	21 50       	subi	r18, 0x01	; 1
 140:	80 40       	sbci	r24, 0x00	; 0
 142:	90 40       	sbci	r25, 0x00	; 0
 144:	e1 f7       	brne	.-8      	; 0x13e <app_start+0xbc>
 146:	00 c0       	rjmp	.+0      	; 0x148 <app_start+0xc6>
 148:	00 00       	nop
 14a:	ae cf       	rjmp	.-164    	; 0xa8 <app_start+0x26>

0000014c <BUTTON_read>:
 14c:	0c 94 44 02 	jmp	0x488	; 0x488 <DIO_ReadPin>

00000150 <LED_init>:
 150:	60 e0       	ldi	r22, 0x00	; 0
 152:	0c 94 b8 00 	jmp	0x170	; 0x170 <DIO_InitPin>

00000156 <LED_on>:
 156:	61 e0       	ldi	r22, 0x01	; 1
 158:	0c 94 be 01 	jmp	0x37c	; 0x37c <DIO_WritePin>

0000015c <LED_off>:
 15c:	60 e0       	ldi	r22, 0x00	; 0
 15e:	0c 94 be 01 	jmp	0x37c	; 0x37c <DIO_WritePin>

00000162 <main>:
 162:	0e 94 ab 01 	call	0x356	; 0x356 <DIO_Init>
 166:	0e 94 41 00 	call	0x82	; 0x82 <app_start>
 16a:	80 e0       	ldi	r24, 0x00	; 0
 16c:	90 e0       	ldi	r25, 0x00	; 0
 16e:	08 95       	ret

00000170 <DIO_InitPin>:
 170:	80 32       	cpi	r24, 0x20	; 32
 172:	08 f0       	brcs	.+2      	; 0x176 <DIO_InitPin+0x6>
 174:	ec c0       	rjmp	.+472    	; 0x34e <DIO_InitPin+0x1de>
 176:	98 2f       	mov	r25, r24
 178:	96 95       	lsr	r25
 17a:	96 95       	lsr	r25
 17c:	96 95       	lsr	r25
 17e:	87 70       	andi	r24, 0x07	; 7
 180:	61 30       	cpi	r22, 0x01	; 1
 182:	09 f4       	brne	.+2      	; 0x186 <DIO_InitPin+0x16>
 184:	4b c0       	rjmp	.+150    	; 0x21c <DIO_InitPin+0xac>
 186:	20 f0       	brcs	.+8      	; 0x190 <DIO_InitPin+0x20>
 188:	62 30       	cpi	r22, 0x02	; 2
 18a:	09 f4       	brne	.+2      	; 0x18e <DIO_InitPin+0x1e>
 18c:	91 c0       	rjmp	.+290    	; 0x2b0 <DIO_InitPin+0x140>
 18e:	e1 c0       	rjmp	.+450    	; 0x352 <DIO_InitPin+0x1e2>
 190:	92 30       	cpi	r25, 0x02	; 2
 192:	21 f1       	breq	.+72     	; 0x1dc <DIO_InitPin+0x6c>
 194:	93 30       	cpi	r25, 0x03	; 3
 196:	91 f1       	breq	.+100    	; 0x1fc <DIO_InitPin+0x8c>
 198:	91 30       	cpi	r25, 0x01	; 1
 19a:	81 f0       	breq	.+32     	; 0x1bc <DIO_InitPin+0x4c>
 19c:	4a b3       	in	r20, 0x1a	; 26
 19e:	21 e0       	ldi	r18, 0x01	; 1
 1a0:	30 e0       	ldi	r19, 0x00	; 0
 1a2:	b9 01       	movw	r22, r18
 1a4:	02 c0       	rjmp	.+4      	; 0x1aa <DIO_InitPin+0x3a>
 1a6:	66 0f       	add	r22, r22
 1a8:	77 1f       	adc	r23, r23
 1aa:	8a 95       	dec	r24
 1ac:	e2 f7       	brpl	.-8      	; 0x1a6 <DIO_InitPin+0x36>
 1ae:	cb 01       	movw	r24, r22
 1b0:	94 2f       	mov	r25, r20
 1b2:	98 2b       	or	r25, r24
 1b4:	9a bb       	out	0x1a, r25	; 26
 1b6:	9b b3       	in	r25, 0x1b	; 27
 1b8:	80 95       	com	r24
 1ba:	45 c0       	rjmp	.+138    	; 0x246 <DIO_InitPin+0xd6>
 1bc:	47 b3       	in	r20, 0x17	; 23
 1be:	21 e0       	ldi	r18, 0x01	; 1
 1c0:	30 e0       	ldi	r19, 0x00	; 0
 1c2:	b9 01       	movw	r22, r18
 1c4:	02 c0       	rjmp	.+4      	; 0x1ca <DIO_InitPin+0x5a>
 1c6:	66 0f       	add	r22, r22
 1c8:	77 1f       	adc	r23, r23
 1ca:	8a 95       	dec	r24
 1cc:	e2 f7       	brpl	.-8      	; 0x1c6 <DIO_InitPin+0x56>
 1ce:	cb 01       	movw	r24, r22
 1d0:	94 2f       	mov	r25, r20
 1d2:	98 2b       	or	r25, r24
 1d4:	97 bb       	out	0x17, r25	; 23
 1d6:	98 b3       	in	r25, 0x18	; 24
 1d8:	80 95       	com	r24
 1da:	46 c0       	rjmp	.+140    	; 0x268 <DIO_InitPin+0xf8>
 1dc:	44 b3       	in	r20, 0x14	; 20
 1de:	21 e0       	ldi	r18, 0x01	; 1
 1e0:	30 e0       	ldi	r19, 0x00	; 0
 1e2:	b9 01       	movw	r22, r18
 1e4:	02 c0       	rjmp	.+4      	; 0x1ea <DIO_InitPin+0x7a>
 1e6:	66 0f       	add	r22, r22
 1e8:	77 1f       	adc	r23, r23
 1ea:	8a 95       	dec	r24
 1ec:	e2 f7       	brpl	.-8      	; 0x1e6 <DIO_InitPin+0x76>
 1ee:	cb 01       	movw	r24, r22
 1f0:	94 2f       	mov	r25, r20
 1f2:	98 2b       	or	r25, r24
 1f4:	94 bb       	out	0x14, r25	; 20
 1f6:	95 b3       	in	r25, 0x15	; 21
 1f8:	80 95       	com	r24
 1fa:	47 c0       	rjmp	.+142    	; 0x28a <DIO_InitPin+0x11a>
 1fc:	41 b3       	in	r20, 0x11	; 17
 1fe:	21 e0       	ldi	r18, 0x01	; 1
 200:	30 e0       	ldi	r19, 0x00	; 0
 202:	b9 01       	movw	r22, r18
 204:	02 c0       	rjmp	.+4      	; 0x20a <DIO_InitPin+0x9a>
 206:	66 0f       	add	r22, r22
 208:	77 1f       	adc	r23, r23
 20a:	8a 95       	dec	r24
 20c:	e2 f7       	brpl	.-8      	; 0x206 <DIO_InitPin+0x96>
 20e:	cb 01       	movw	r24, r22
 210:	94 2f       	mov	r25, r20
 212:	98 2b       	or	r25, r24
 214:	91 bb       	out	0x11, r25	; 17
 216:	92 b3       	in	r25, 0x12	; 18
 218:	80 95       	com	r24
 21a:	48 c0       	rjmp	.+144    	; 0x2ac <DIO_InitPin+0x13c>
 21c:	92 30       	cpi	r25, 0x02	; 2
 21e:	31 f1       	breq	.+76     	; 0x26c <DIO_InitPin+0xfc>
 220:	93 30       	cpi	r25, 0x03	; 3
 222:	a9 f1       	breq	.+106    	; 0x28e <DIO_InitPin+0x11e>
 224:	91 30       	cpi	r25, 0x01	; 1
 226:	89 f0       	breq	.+34     	; 0x24a <DIO_InitPin+0xda>
 228:	4a b3       	in	r20, 0x1a	; 26
 22a:	21 e0       	ldi	r18, 0x01	; 1
 22c:	30 e0       	ldi	r19, 0x00	; 0
 22e:	b9 01       	movw	r22, r18
 230:	02 c0       	rjmp	.+4      	; 0x236 <DIO_InitPin+0xc6>
 232:	66 0f       	add	r22, r22
 234:	77 1f       	adc	r23, r23
 236:	8a 95       	dec	r24
 238:	e2 f7       	brpl	.-8      	; 0x232 <DIO_InitPin+0xc2>
 23a:	cb 01       	movw	r24, r22
 23c:	80 95       	com	r24
 23e:	94 2f       	mov	r25, r20
 240:	98 23       	and	r25, r24
 242:	9a bb       	out	0x1a, r25	; 26
 244:	9b b3       	in	r25, 0x1b	; 27
 246:	89 23       	and	r24, r25
 248:	49 c0       	rjmp	.+146    	; 0x2dc <DIO_InitPin+0x16c>
 24a:	47 b3       	in	r20, 0x17	; 23
 24c:	21 e0       	ldi	r18, 0x01	; 1
 24e:	30 e0       	ldi	r19, 0x00	; 0
 250:	b9 01       	movw	r22, r18
 252:	02 c0       	rjmp	.+4      	; 0x258 <DIO_InitPin+0xe8>
 254:	66 0f       	add	r22, r22
 256:	77 1f       	adc	r23, r23
 258:	8a 95       	dec	r24
 25a:	e2 f7       	brpl	.-8      	; 0x254 <DIO_InitPin+0xe4>
 25c:	cb 01       	movw	r24, r22
 25e:	80 95       	com	r24
 260:	94 2f       	mov	r25, r20
 262:	98 23       	and	r25, r24
 264:	97 bb       	out	0x17, r25	; 23
 266:	98 b3       	in	r25, 0x18	; 24
 268:	89 23       	and	r24, r25
 26a:	4a c0       	rjmp	.+148    	; 0x300 <DIO_InitPin+0x190>
 26c:	44 b3       	in	r20, 0x14	; 20
 26e:	21 e0       	ldi	r18, 0x01	; 1
 270:	30 e0       	ldi	r19, 0x00	; 0
 272:	b9 01       	movw	r22, r18
 274:	02 c0       	rjmp	.+4      	; 0x27a <DIO_InitPin+0x10a>
 276:	66 0f       	add	r22, r22
 278:	77 1f       	adc	r23, r23
 27a:	8a 95       	dec	r24
 27c:	e2 f7       	brpl	.-8      	; 0x276 <DIO_InitPin+0x106>
 27e:	cb 01       	movw	r24, r22
 280:	80 95       	com	r24
 282:	94 2f       	mov	r25, r20
 284:	98 23       	and	r25, r24
 286:	94 bb       	out	0x14, r25	; 20
 288:	95 b3       	in	r25, 0x15	; 21
 28a:	89 23       	and	r24, r25
 28c:	4b c0       	rjmp	.+150    	; 0x324 <DIO_InitPin+0x1b4>
 28e:	41 b3       	in	r20, 0x11	; 17
 290:	21 e0       	ldi	r18, 0x01	; 1
 292:	30 e0       	ldi	r19, 0x00	; 0
 294:	b9 01       	movw	r22, r18
 296:	02 c0       	rjmp	.+4      	; 0x29c <DIO_InitPin+0x12c>
 298:	66 0f       	add	r22, r22
 29a:	77 1f       	adc	r23, r23
 29c:	8a 95       	dec	r24
 29e:	e2 f7       	brpl	.-8      	; 0x298 <DIO_InitPin+0x128>
 2a0:	cb 01       	movw	r24, r22
 2a2:	80 95       	com	r24
 2a4:	94 2f       	mov	r25, r20
 2a6:	98 23       	and	r25, r24
 2a8:	91 bb       	out	0x11, r25	; 17
 2aa:	92 b3       	in	r25, 0x12	; 18
 2ac:	89 23       	and	r24, r25
 2ae:	4c c0       	rjmp	.+152    	; 0x348 <DIO_InitPin+0x1d8>
 2b0:	92 30       	cpi	r25, 0x02	; 2
 2b2:	41 f1       	breq	.+80     	; 0x304 <DIO_InitPin+0x194>
 2b4:	93 30       	cpi	r25, 0x03	; 3
 2b6:	c1 f1       	breq	.+112    	; 0x328 <DIO_InitPin+0x1b8>
 2b8:	91 30       	cpi	r25, 0x01	; 1
 2ba:	91 f0       	breq	.+36     	; 0x2e0 <DIO_InitPin+0x170>
 2bc:	4a b3       	in	r20, 0x1a	; 26
 2be:	21 e0       	ldi	r18, 0x01	; 1
 2c0:	30 e0       	ldi	r19, 0x00	; 0
 2c2:	b9 01       	movw	r22, r18
 2c4:	02 c0       	rjmp	.+4      	; 0x2ca <DIO_InitPin+0x15a>
 2c6:	66 0f       	add	r22, r22
 2c8:	77 1f       	adc	r23, r23
 2ca:	8a 95       	dec	r24
 2cc:	e2 f7       	brpl	.-8      	; 0x2c6 <DIO_InitPin+0x156>
 2ce:	cb 01       	movw	r24, r22
 2d0:	96 2f       	mov	r25, r22
 2d2:	90 95       	com	r25
 2d4:	94 23       	and	r25, r20
 2d6:	9a bb       	out	0x1a, r25	; 26
 2d8:	9b b3       	in	r25, 0x1b	; 27
 2da:	89 2b       	or	r24, r25
 2dc:	8b bb       	out	0x1b, r24	; 27
 2de:	35 c0       	rjmp	.+106    	; 0x34a <DIO_InitPin+0x1da>
 2e0:	47 b3       	in	r20, 0x17	; 23
 2e2:	21 e0       	ldi	r18, 0x01	; 1
 2e4:	30 e0       	ldi	r19, 0x00	; 0
 2e6:	b9 01       	movw	r22, r18
 2e8:	02 c0       	rjmp	.+4      	; 0x2ee <DIO_InitPin+0x17e>
 2ea:	66 0f       	add	r22, r22
 2ec:	77 1f       	adc	r23, r23
 2ee:	8a 95       	dec	r24
 2f0:	e2 f7       	brpl	.-8      	; 0x2ea <DIO_InitPin+0x17a>
 2f2:	cb 01       	movw	r24, r22
 2f4:	96 2f       	mov	r25, r22
 2f6:	90 95       	com	r25
 2f8:	94 23       	and	r25, r20
 2fa:	97 bb       	out	0x17, r25	; 23
 2fc:	98 b3       	in	r25, 0x18	; 24
 2fe:	89 2b       	or	r24, r25
 300:	88 bb       	out	0x18, r24	; 24
 302:	23 c0       	rjmp	.+70     	; 0x34a <DIO_InitPin+0x1da>
 304:	44 b3       	in	r20, 0x14	; 20
 306:	21 e0       	ldi	r18, 0x01	; 1
 308:	30 e0       	ldi	r19, 0x00	; 0
 30a:	b9 01       	movw	r22, r18
 30c:	02 c0       	rjmp	.+4      	; 0x312 <DIO_InitPin+0x1a2>
 30e:	66 0f       	add	r22, r22
 310:	77 1f       	adc	r23, r23
 312:	8a 95       	dec	r24
 314:	e2 f7       	brpl	.-8      	; 0x30e <DIO_InitPin+0x19e>
 316:	cb 01       	movw	r24, r22
 318:	96 2f       	mov	r25, r22
 31a:	90 95       	com	r25
 31c:	94 23       	and	r25, r20
 31e:	94 bb       	out	0x14, r25	; 20
 320:	95 b3       	in	r25, 0x15	; 21
 322:	89 2b       	or	r24, r25
 324:	85 bb       	out	0x15, r24	; 21
 326:	11 c0       	rjmp	.+34     	; 0x34a <DIO_InitPin+0x1da>
 328:	41 b3       	in	r20, 0x11	; 17
 32a:	21 e0       	ldi	r18, 0x01	; 1
 32c:	30 e0       	ldi	r19, 0x00	; 0
 32e:	b9 01       	movw	r22, r18
 330:	02 c0       	rjmp	.+4      	; 0x336 <DIO_InitPin+0x1c6>
 332:	66 0f       	add	r22, r22
 334:	77 1f       	adc	r23, r23
 336:	8a 95       	dec	r24
 338:	e2 f7       	brpl	.-8      	; 0x332 <DIO_InitPin+0x1c2>
 33a:	cb 01       	movw	r24, r22
 33c:	96 2f       	mov	r25, r22
 33e:	90 95       	com	r25
 340:	94 23       	and	r25, r20
 342:	91 bb       	out	0x11, r25	; 17
 344:	92 b3       	in	r25, 0x12	; 18
 346:	89 2b       	or	r24, r25
 348:	82 bb       	out	0x12, r24	; 18
 34a:	80 e0       	ldi	r24, 0x00	; 0
 34c:	08 95       	ret
 34e:	82 e0       	ldi	r24, 0x02	; 2
 350:	08 95       	ret
 352:	84 e0       	ldi	r24, 0x04	; 4
 354:	08 95       	ret

00000356 <DIO_Init>:
 356:	0f 93       	push	r16
 358:	1f 93       	push	r17
 35a:	cf 93       	push	r28
 35c:	00 e6       	ldi	r16, 0x60	; 96
 35e:	10 e0       	ldi	r17, 0x00	; 0
 360:	c0 e0       	ldi	r28, 0x00	; 0
 362:	f8 01       	movw	r30, r16
 364:	61 91       	ld	r22, Z+
 366:	8f 01       	movw	r16, r30
 368:	8c 2f       	mov	r24, r28
 36a:	0e 94 b8 00 	call	0x170	; 0x170 <DIO_InitPin>
 36e:	cf 5f       	subi	r28, 0xFF	; 255
 370:	c0 32       	cpi	r28, 0x20	; 32
 372:	b9 f7       	brne	.-18     	; 0x362 <DIO_Init+0xc>
 374:	cf 91       	pop	r28
 376:	1f 91       	pop	r17
 378:	0f 91       	pop	r16
 37a:	08 95       	ret

0000037c <DIO_WritePin>:
 37c:	80 32       	cpi	r24, 0x20	; 32
 37e:	08 f0       	brcs	.+2      	; 0x382 <DIO_WritePin+0x6>
 380:	7f c0       	rjmp	.+254    	; 0x480 <__EEPROM_REGION_LENGTH__+0x80>
 382:	98 2f       	mov	r25, r24
 384:	96 95       	lsr	r25
 386:	96 95       	lsr	r25
 388:	96 95       	lsr	r25
 38a:	87 70       	andi	r24, 0x07	; 7
 38c:	66 23       	and	r22, r22
 38e:	c9 f1       	breq	.+114    	; 0x402 <__EEPROM_REGION_LENGTH__+0x2>
 390:	61 30       	cpi	r22, 0x01	; 1
 392:	09 f0       	breq	.+2      	; 0x396 <DIO_WritePin+0x1a>
 394:	77 c0       	rjmp	.+238    	; 0x484 <__EEPROM_REGION_LENGTH__+0x84>
 396:	92 30       	cpi	r25, 0x02	; 2
 398:	e1 f0       	breq	.+56     	; 0x3d2 <DIO_WritePin+0x56>
 39a:	93 30       	cpi	r25, 0x03	; 3
 39c:	31 f1       	breq	.+76     	; 0x3ea <DIO_WritePin+0x6e>
 39e:	91 30       	cpi	r25, 0x01	; 1
 3a0:	61 f0       	breq	.+24     	; 0x3ba <DIO_WritePin+0x3e>
 3a2:	4b b3       	in	r20, 0x1b	; 27
 3a4:	21 e0       	ldi	r18, 0x01	; 1
 3a6:	30 e0       	ldi	r19, 0x00	; 0
 3a8:	b9 01       	movw	r22, r18
 3aa:	02 c0       	rjmp	.+4      	; 0x3b0 <DIO_WritePin+0x34>
 3ac:	66 0f       	add	r22, r22
 3ae:	77 1f       	adc	r23, r23
 3b0:	8a 95       	dec	r24
 3b2:	e2 f7       	brpl	.-8      	; 0x3ac <DIO_WritePin+0x30>
 3b4:	cb 01       	movw	r24, r22
 3b6:	84 2b       	or	r24, r20
 3b8:	36 c0       	rjmp	.+108    	; 0x426 <__EEPROM_REGION_LENGTH__+0x26>
 3ba:	48 b3       	in	r20, 0x18	; 24
 3bc:	21 e0       	ldi	r18, 0x01	; 1
 3be:	30 e0       	ldi	r19, 0x00	; 0
 3c0:	b9 01       	movw	r22, r18
 3c2:	02 c0       	rjmp	.+4      	; 0x3c8 <DIO_WritePin+0x4c>
 3c4:	66 0f       	add	r22, r22
 3c6:	77 1f       	adc	r23, r23
 3c8:	8a 95       	dec	r24
 3ca:	e2 f7       	brpl	.-8      	; 0x3c4 <DIO_WritePin+0x48>
 3cc:	cb 01       	movw	r24, r22
 3ce:	84 2b       	or	r24, r20
 3d0:	38 c0       	rjmp	.+112    	; 0x442 <__EEPROM_REGION_LENGTH__+0x42>
 3d2:	45 b3       	in	r20, 0x15	; 21
 3d4:	21 e0       	ldi	r18, 0x01	; 1
 3d6:	30 e0       	ldi	r19, 0x00	; 0
 3d8:	b9 01       	movw	r22, r18
 3da:	02 c0       	rjmp	.+4      	; 0x3e0 <DIO_WritePin+0x64>
 3dc:	66 0f       	add	r22, r22
 3de:	77 1f       	adc	r23, r23
 3e0:	8a 95       	dec	r24
 3e2:	e2 f7       	brpl	.-8      	; 0x3dc <DIO_WritePin+0x60>
 3e4:	cb 01       	movw	r24, r22
 3e6:	84 2b       	or	r24, r20
 3e8:	3a c0       	rjmp	.+116    	; 0x45e <__EEPROM_REGION_LENGTH__+0x5e>
 3ea:	42 b3       	in	r20, 0x12	; 18
 3ec:	21 e0       	ldi	r18, 0x01	; 1
 3ee:	30 e0       	ldi	r19, 0x00	; 0
 3f0:	b9 01       	movw	r22, r18
 3f2:	02 c0       	rjmp	.+4      	; 0x3f8 <DIO_WritePin+0x7c>
 3f4:	66 0f       	add	r22, r22
 3f6:	77 1f       	adc	r23, r23
 3f8:	8a 95       	dec	r24
 3fa:	e2 f7       	brpl	.-8      	; 0x3f4 <DIO_WritePin+0x78>
 3fc:	cb 01       	movw	r24, r22
 3fe:	84 2b       	or	r24, r20
 400:	3d c0       	rjmp	.+122    	; 0x47c <__EEPROM_REGION_LENGTH__+0x7c>
 402:	92 30       	cpi	r25, 0x02	; 2
 404:	01 f1       	breq	.+64     	; 0x446 <__EEPROM_REGION_LENGTH__+0x46>
 406:	93 30       	cpi	r25, 0x03	; 3
 408:	69 f1       	breq	.+90     	; 0x464 <__EEPROM_REGION_LENGTH__+0x64>
 40a:	91 30       	cpi	r25, 0x01	; 1
 40c:	71 f0       	breq	.+28     	; 0x42a <__EEPROM_REGION_LENGTH__+0x2a>
 40e:	4b b3       	in	r20, 0x1b	; 27
 410:	21 e0       	ldi	r18, 0x01	; 1
 412:	30 e0       	ldi	r19, 0x00	; 0
 414:	b9 01       	movw	r22, r18
 416:	02 c0       	rjmp	.+4      	; 0x41c <__EEPROM_REGION_LENGTH__+0x1c>
 418:	66 0f       	add	r22, r22
 41a:	77 1f       	adc	r23, r23
 41c:	8a 95       	dec	r24
 41e:	e2 f7       	brpl	.-8      	; 0x418 <__EEPROM_REGION_LENGTH__+0x18>
 420:	cb 01       	movw	r24, r22
 422:	80 95       	com	r24
 424:	84 23       	and	r24, r20
 426:	8b bb       	out	0x1b, r24	; 27
 428:	1b c0       	rjmp	.+54     	; 0x460 <__EEPROM_REGION_LENGTH__+0x60>
 42a:	48 b3       	in	r20, 0x18	; 24
 42c:	21 e0       	ldi	r18, 0x01	; 1
 42e:	30 e0       	ldi	r19, 0x00	; 0
 430:	b9 01       	movw	r22, r18
 432:	02 c0       	rjmp	.+4      	; 0x438 <__EEPROM_REGION_LENGTH__+0x38>
 434:	66 0f       	add	r22, r22
 436:	77 1f       	adc	r23, r23
 438:	8a 95       	dec	r24
 43a:	e2 f7       	brpl	.-8      	; 0x434 <__EEPROM_REGION_LENGTH__+0x34>
 43c:	cb 01       	movw	r24, r22
 43e:	80 95       	com	r24
 440:	84 23       	and	r24, r20
 442:	88 bb       	out	0x18, r24	; 24
 444:	0d c0       	rjmp	.+26     	; 0x460 <__EEPROM_REGION_LENGTH__+0x60>
 446:	45 b3       	in	r20, 0x15	; 21
 448:	21 e0       	ldi	r18, 0x01	; 1
 44a:	30 e0       	ldi	r19, 0x00	; 0
 44c:	b9 01       	movw	r22, r18
 44e:	02 c0       	rjmp	.+4      	; 0x454 <__EEPROM_REGION_LENGTH__+0x54>
 450:	66 0f       	add	r22, r22
 452:	77 1f       	adc	r23, r23
 454:	8a 95       	dec	r24
 456:	e2 f7       	brpl	.-8      	; 0x450 <__EEPROM_REGION_LENGTH__+0x50>
 458:	cb 01       	movw	r24, r22
 45a:	80 95       	com	r24
 45c:	84 23       	and	r24, r20
 45e:	85 bb       	out	0x15, r24	; 21
 460:	80 e0       	ldi	r24, 0x00	; 0
 462:	08 95       	ret
 464:	42 b3       	in	r20, 0x12	; 18
 466:	21 e0       	ldi	r18, 0x01	; 1
 468:	30 e0       	ldi	r19, 0x00	; 0
 46a:	b9 01       	movw	r22, r18
 46c:	02 c0       	rjmp	.+4      	; 0x472 <__EEPROM_REGION_LENGTH__+0x72>
 46e:	66 0f       	add	r22, r22
 470:	77 1f       	adc	r23, r23
 472:	8a 95       	dec	r24
 474:	e2 f7       	brpl	.-8      	; 0x46e <__EEPROM_REGION_LENGTH__+0x6e>
 476:	cb 01       	movw	r24, r22
 478:	80 95       	com	r24
 47a:	84 23       	and	r24, r20
 47c:	82 bb       	out	0x12, r24	; 18
 47e:	f0 cf       	rjmp	.-32     	; 0x460 <__EEPROM_REGION_LENGTH__+0x60>
 480:	82 e0       	ldi	r24, 0x02	; 2
 482:	08 95       	ret
 484:	83 e0       	ldi	r24, 0x03	; 3
 486:	08 95       	ret

00000488 <DIO_ReadPin>:
 488:	fb 01       	movw	r30, r22
 48a:	10 82       	st	Z, r1
 48c:	80 32       	cpi	r24, 0x20	; 32
 48e:	e0 f4       	brcc	.+56     	; 0x4c8 <DIO_ReadPin+0x40>
 490:	28 2f       	mov	r18, r24
 492:	27 70       	andi	r18, 0x07	; 7
 494:	86 95       	lsr	r24
 496:	86 95       	lsr	r24
 498:	86 95       	lsr	r24
 49a:	82 30       	cpi	r24, 0x02	; 2
 49c:	41 f0       	breq	.+16     	; 0x4ae <DIO_ReadPin+0x26>
 49e:	83 30       	cpi	r24, 0x03	; 3
 4a0:	89 f0       	breq	.+34     	; 0x4c4 <DIO_ReadPin+0x3c>
 4a2:	81 30       	cpi	r24, 0x01	; 1
 4a4:	11 f0       	breq	.+4      	; 0x4aa <DIO_ReadPin+0x22>
 4a6:	89 b3       	in	r24, 0x19	; 25
 4a8:	03 c0       	rjmp	.+6      	; 0x4b0 <DIO_ReadPin+0x28>
 4aa:	86 b3       	in	r24, 0x16	; 22
 4ac:	01 c0       	rjmp	.+2      	; 0x4b0 <DIO_ReadPin+0x28>
 4ae:	83 b3       	in	r24, 0x13	; 19
 4b0:	90 e0       	ldi	r25, 0x00	; 0
 4b2:	02 c0       	rjmp	.+4      	; 0x4b8 <DIO_ReadPin+0x30>
 4b4:	95 95       	asr	r25
 4b6:	87 95       	ror	r24
 4b8:	2a 95       	dec	r18
 4ba:	e2 f7       	brpl	.-8      	; 0x4b4 <DIO_ReadPin+0x2c>
 4bc:	81 70       	andi	r24, 0x01	; 1
 4be:	80 83       	st	Z, r24
 4c0:	80 e0       	ldi	r24, 0x00	; 0
 4c2:	08 95       	ret
 4c4:	80 b3       	in	r24, 0x10	; 16
 4c6:	f4 cf       	rjmp	.-24     	; 0x4b0 <DIO_ReadPin+0x28>
 4c8:	82 e0       	ldi	r24, 0x02	; 2
 4ca:	08 95       	ret

000004cc <_exit>:
 4cc:	f8 94       	cli

000004ce <__stop_program>:
 4ce:	ff cf       	rjmp	.-2      	; 0x4ce <__stop_program>
