
sprints_interface.elf:     file format elf32-avr

Sections:
Idx Name          Size      VMA       LMA       File off  Algn
  0 .text         0000061e  00000000  00000000  00000094  2**1
                  CONTENTS, ALLOC, LOAD, READONLY, CODE
  1 .data         00000020  00800060  0000061e  000006b2  2**0
                  CONTENTS, ALLOC, LOAD, DATA
  2 .bss          00000008  00800080  00800080  000006d2  2**0
                  ALLOC
  3 .comment      00000030  00000000  00000000  000006d2  2**0
                  CONTENTS, READONLY
  4 .note.gnu.avr.deviceinfo 0000003c  00000000  00000000  00000704  2**2
                  CONTENTS, READONLY
  5 .debug_info   000004e6  00000000  00000000  00000740  2**0
                  CONTENTS, READONLY, DEBUGGING
  6 .debug_abbrev 000004a3  00000000  00000000  00000c26  2**0
                  CONTENTS, READONLY, DEBUGGING
  7 .debug_line   00000116  00000000  00000000  000010c9  2**0
                  CONTENTS, READONLY, DEBUGGING
  8 .debug_str    00000196  00000000  00000000  000011df  2**0
                  CONTENTS, READONLY, DEBUGGING

Disassembly of section .text:

00000000 <__vectors>:
   0:	0c 94 2a 00 	jmp	0x54	; 0x54 <__ctors_end>
   4:	0c 94 92 02 	jmp	0x524	; 0x524 <__vector_1>
   8:	0c 94 bb 02 	jmp	0x576	; 0x576 <__vector_2>
   c:	0c 94 e4 02 	jmp	0x5c8	; 0x5c8 <__vector_3>
  10:	0c 94 47 00 	jmp	0x8e	; 0x8e <__bad_interrupt>
  14:	0c 94 47 00 	jmp	0x8e	; 0x8e <__bad_interrupt>
  18:	0c 94 47 00 	jmp	0x8e	; 0x8e <__bad_interrupt>
  1c:	0c 94 47 00 	jmp	0x8e	; 0x8e <__bad_interrupt>
  20:	0c 94 47 00 	jmp	0x8e	; 0x8e <__bad_interrupt>
  24:	0c 94 47 00 	jmp	0x8e	; 0x8e <__bad_interrupt>
  28:	0c 94 47 00 	jmp	0x8e	; 0x8e <__bad_interrupt>
  2c:	0c 94 47 00 	jmp	0x8e	; 0x8e <__bad_interrupt>
  30:	0c 94 47 00 	jmp	0x8e	; 0x8e <__bad_interrupt>
  34:	0c 94 47 00 	jmp	0x8e	; 0x8e <__bad_interrupt>
  38:	0c 94 47 00 	jmp	0x8e	; 0x8e <__bad_interrupt>
  3c:	0c 94 47 00 	jmp	0x8e	; 0x8e <__bad_interrupt>
  40:	0c 94 47 00 	jmp	0x8e	; 0x8e <__bad_interrupt>
  44:	0c 94 47 00 	jmp	0x8e	; 0x8e <__bad_interrupt>
  48:	0c 94 47 00 	jmp	0x8e	; 0x8e <__bad_interrupt>
  4c:	0c 94 47 00 	jmp	0x8e	; 0x8e <__bad_interrupt>
  50:	0c 94 47 00 	jmp	0x8e	; 0x8e <__bad_interrupt>

00000054 <__ctors_end>:
  54:	11 24       	eor	r1, r1
  56:	1f be       	out	0x3f, r1	; 63
  58:	cf e5       	ldi	r28, 0x5F	; 95
  5a:	d8 e0       	ldi	r29, 0x08	; 8
  5c:	de bf       	out	0x3e, r29	; 62
  5e:	cd bf       	out	0x3d, r28	; 61

00000060 <__do_copy_data>:
  60:	10 e0       	ldi	r17, 0x00	; 0
  62:	a0 e6       	ldi	r26, 0x60	; 96
  64:	b0 e0       	ldi	r27, 0x00	; 0
  66:	ee e1       	ldi	r30, 0x1E	; 30
  68:	f6 e0       	ldi	r31, 0x06	; 6
  6a:	02 c0       	rjmp	.+4      	; 0x70 <__do_copy_data+0x10>
  6c:	05 90       	lpm	r0, Z+
  6e:	0d 92       	st	X+, r0
  70:	a0 38       	cpi	r26, 0x80	; 128
  72:	b1 07       	cpc	r27, r17
  74:	d9 f7       	brne	.-10     	; 0x6c <__do_copy_data+0xc>

00000076 <__do_clear_bss>:
  76:	20 e0       	ldi	r18, 0x00	; 0
  78:	a0 e8       	ldi	r26, 0x80	; 128
  7a:	b0 e0       	ldi	r27, 0x00	; 0
  7c:	01 c0       	rjmp	.+2      	; 0x80 <.do_clear_bss_start>

0000007e <.do_clear_bss_loop>:
  7e:	1d 92       	st	X+, r1

00000080 <.do_clear_bss_start>:
  80:	a8 38       	cpi	r26, 0x88	; 136
  82:	b2 07       	cpc	r27, r18
  84:	e1 f7       	brne	.-8      	; 0x7e <.do_clear_bss_loop>
  86:	0e 94 96 00 	call	0x12c	; 0x12c <main>
  8a:	0c 94 0d 03 	jmp	0x61a	; 0x61a <_exit>

0000008e <__bad_interrupt>:
  8e:	0c 94 00 00 	jmp	0	; 0x0 <__vectors>

00000092 <app_start_v2>:
  92:	80 91 80 00 	lds	r24, 0x0080	; 0x800080 <__data_end>
  96:	90 91 81 00 	lds	r25, 0x0081	; 0x800081 <__data_end+0x1>
  9a:	08 97       	sbiw	r24, 0x08	; 8
  9c:	20 f0       	brcs	.+8      	; 0xa6 <app_start_v2+0x14>
  9e:	10 92 81 00 	sts	0x0081, r1	; 0x800081 <__data_end+0x1>
  a2:	10 92 80 00 	sts	0x0080, r1	; 0x800080 <__data_end>
  a6:	80 91 80 00 	lds	r24, 0x0080	; 0x800080 <__data_end>
  aa:	90 91 81 00 	lds	r25, 0x0081	; 0x800081 <__data_end+0x1>
  ae:	84 30       	cpi	r24, 0x04	; 4
  b0:	91 05       	cpc	r25, r1
  b2:	20 f4       	brcc	.+8      	; 0xbc <app_start_v2+0x2a>
  b4:	88 5f       	subi	r24, 0xF8	; 248
  b6:	0e 94 90 00 	call	0x120	; 0x120 <LED_on>
  ba:	03 c0       	rjmp	.+6      	; 0xc2 <app_start_v2+0x30>
  bc:	8c 5f       	subi	r24, 0xFC	; 252
  be:	0e 94 93 00 	call	0x126	; 0x126 <LED_off>
  c2:	80 91 80 00 	lds	r24, 0x0080	; 0x800080 <__data_end>
  c6:	90 91 81 00 	lds	r25, 0x0081	; 0x800081 <__data_end+0x1>
  ca:	01 96       	adiw	r24, 0x01	; 1
  cc:	90 93 81 00 	sts	0x0081, r25	; 0x800081 <__data_end+0x1>
  d0:	80 93 80 00 	sts	0x0080, r24	; 0x800080 <__data_end>
  d4:	08 95       	ret

000000d6 <app_init>:
  d6:	88 e0       	ldi	r24, 0x08	; 8
  d8:	0e 94 8d 00 	call	0x11a	; 0x11a <LED_init>
  dc:	89 e0       	ldi	r24, 0x09	; 9
  de:	0e 94 8d 00 	call	0x11a	; 0x11a <LED_init>
  e2:	8a e0       	ldi	r24, 0x0A	; 10
  e4:	0e 94 8d 00 	call	0x11a	; 0x11a <LED_init>
  e8:	8b e0       	ldi	r24, 0x0B	; 11
  ea:	0e 94 8d 00 	call	0x11a	; 0x11a <LED_init>
  ee:	8f e1       	ldi	r24, 0x1F	; 31
  f0:	0e 94 8a 00 	call	0x114	; 0x114 <BUTTON_init>
  f4:	8a e1       	ldi	r24, 0x1A	; 26
  f6:	0e 94 8a 00 	call	0x114	; 0x114 <BUTTON_init>
  fa:	78 94       	sei
  fc:	80 e0       	ldi	r24, 0x00	; 0
  fe:	0e 94 27 02 	call	0x44e	; 0x44e <EXI_Enable>
 102:	63 e0       	ldi	r22, 0x03	; 3
 104:	80 e0       	ldi	r24, 0x00	; 0
 106:	0e 94 37 02 	call	0x46e	; 0x46e <EXI_TriggerEdge>
 10a:	69 e4       	ldi	r22, 0x49	; 73
 10c:	70 e0       	ldi	r23, 0x00	; 0
 10e:	80 e0       	ldi	r24, 0x00	; 0
 110:	0c 94 7d 02 	jmp	0x4fa	; 0x4fa <EXI_SetCallBack>

00000114 <BUTTON_init>:
 114:	62 e0       	ldi	r22, 0x02	; 2
 116:	0c 94 9b 00 	jmp	0x136	; 0x136 <DIO_InitPin>

0000011a <LED_init>:
 11a:	60 e0       	ldi	r22, 0x00	; 0
 11c:	0c 94 9b 00 	jmp	0x136	; 0x136 <DIO_InitPin>

00000120 <LED_on>:
 120:	61 e0       	ldi	r22, 0x01	; 1
 122:	0c 94 a1 01 	jmp	0x342	; 0x342 <DIO_WritePin>

00000126 <LED_off>:
 126:	60 e0       	ldi	r22, 0x00	; 0
 128:	0c 94 a1 01 	jmp	0x342	; 0x342 <DIO_WritePin>

0000012c <main>:
 12c:	0e 94 8e 01 	call	0x31c	; 0x31c <DIO_Init>
 130:	0e 94 6b 00 	call	0xd6	; 0xd6 <app_init>
 134:	ff cf       	rjmp	.-2      	; 0x134 <main+0x8>

00000136 <DIO_InitPin>:
 136:	80 32       	cpi	r24, 0x20	; 32
 138:	08 f0       	brcs	.+2      	; 0x13c <DIO_InitPin+0x6>
 13a:	ec c0       	rjmp	.+472    	; 0x314 <DIO_InitPin+0x1de>
 13c:	98 2f       	mov	r25, r24
 13e:	96 95       	lsr	r25
 140:	96 95       	lsr	r25
 142:	96 95       	lsr	r25
 144:	87 70       	andi	r24, 0x07	; 7
 146:	61 30       	cpi	r22, 0x01	; 1
 148:	09 f4       	brne	.+2      	; 0x14c <DIO_InitPin+0x16>
 14a:	4b c0       	rjmp	.+150    	; 0x1e2 <DIO_InitPin+0xac>
 14c:	20 f0       	brcs	.+8      	; 0x156 <DIO_InitPin+0x20>
 14e:	62 30       	cpi	r22, 0x02	; 2
 150:	09 f4       	brne	.+2      	; 0x154 <DIO_InitPin+0x1e>
 152:	91 c0       	rjmp	.+290    	; 0x276 <DIO_InitPin+0x140>
 154:	e1 c0       	rjmp	.+450    	; 0x318 <DIO_InitPin+0x1e2>
 156:	92 30       	cpi	r25, 0x02	; 2
 158:	21 f1       	breq	.+72     	; 0x1a2 <DIO_InitPin+0x6c>
 15a:	93 30       	cpi	r25, 0x03	; 3
 15c:	91 f1       	breq	.+100    	; 0x1c2 <DIO_InitPin+0x8c>
 15e:	91 30       	cpi	r25, 0x01	; 1
 160:	81 f0       	breq	.+32     	; 0x182 <DIO_InitPin+0x4c>
 162:	4a b3       	in	r20, 0x1a	; 26
 164:	21 e0       	ldi	r18, 0x01	; 1
 166:	30 e0       	ldi	r19, 0x00	; 0
 168:	b9 01       	movw	r22, r18
 16a:	02 c0       	rjmp	.+4      	; 0x170 <DIO_InitPin+0x3a>
 16c:	66 0f       	add	r22, r22
 16e:	77 1f       	adc	r23, r23
 170:	8a 95       	dec	r24
 172:	e2 f7       	brpl	.-8      	; 0x16c <DIO_InitPin+0x36>
 174:	cb 01       	movw	r24, r22
 176:	94 2f       	mov	r25, r20
 178:	98 2b       	or	r25, r24
 17a:	9a bb       	out	0x1a, r25	; 26
 17c:	9b b3       	in	r25, 0x1b	; 27
 17e:	80 95       	com	r24
 180:	45 c0       	rjmp	.+138    	; 0x20c <DIO_InitPin+0xd6>
 182:	47 b3       	in	r20, 0x17	; 23
 184:	21 e0       	ldi	r18, 0x01	; 1
 186:	30 e0       	ldi	r19, 0x00	; 0
 188:	b9 01       	movw	r22, r18
 18a:	02 c0       	rjmp	.+4      	; 0x190 <DIO_InitPin+0x5a>
 18c:	66 0f       	add	r22, r22
 18e:	77 1f       	adc	r23, r23
 190:	8a 95       	dec	r24
 192:	e2 f7       	brpl	.-8      	; 0x18c <DIO_InitPin+0x56>
 194:	cb 01       	movw	r24, r22
 196:	94 2f       	mov	r25, r20
 198:	98 2b       	or	r25, r24
 19a:	97 bb       	out	0x17, r25	; 23
 19c:	98 b3       	in	r25, 0x18	; 24
 19e:	80 95       	com	r24
 1a0:	46 c0       	rjmp	.+140    	; 0x22e <DIO_InitPin+0xf8>
 1a2:	44 b3       	in	r20, 0x14	; 20
 1a4:	21 e0       	ldi	r18, 0x01	; 1
 1a6:	30 e0       	ldi	r19, 0x00	; 0
 1a8:	b9 01       	movw	r22, r18
 1aa:	02 c0       	rjmp	.+4      	; 0x1b0 <DIO_InitPin+0x7a>
 1ac:	66 0f       	add	r22, r22
 1ae:	77 1f       	adc	r23, r23
 1b0:	8a 95       	dec	r24
 1b2:	e2 f7       	brpl	.-8      	; 0x1ac <DIO_InitPin+0x76>
 1b4:	cb 01       	movw	r24, r22
 1b6:	94 2f       	mov	r25, r20
 1b8:	98 2b       	or	r25, r24
 1ba:	94 bb       	out	0x14, r25	; 20
 1bc:	95 b3       	in	r25, 0x15	; 21
 1be:	80 95       	com	r24
 1c0:	47 c0       	rjmp	.+142    	; 0x250 <DIO_InitPin+0x11a>
 1c2:	41 b3       	in	r20, 0x11	; 17
 1c4:	21 e0       	ldi	r18, 0x01	; 1
 1c6:	30 e0       	ldi	r19, 0x00	; 0
 1c8:	b9 01       	movw	r22, r18
 1ca:	02 c0       	rjmp	.+4      	; 0x1d0 <DIO_InitPin+0x9a>
 1cc:	66 0f       	add	r22, r22
 1ce:	77 1f       	adc	r23, r23
 1d0:	8a 95       	dec	r24
 1d2:	e2 f7       	brpl	.-8      	; 0x1cc <DIO_InitPin+0x96>
 1d4:	cb 01       	movw	r24, r22
 1d6:	94 2f       	mov	r25, r20
 1d8:	98 2b       	or	r25, r24
 1da:	91 bb       	out	0x11, r25	; 17
 1dc:	92 b3       	in	r25, 0x12	; 18
 1de:	80 95       	com	r24
 1e0:	48 c0       	rjmp	.+144    	; 0x272 <DIO_InitPin+0x13c>
 1e2:	92 30       	cpi	r25, 0x02	; 2
 1e4:	31 f1       	breq	.+76     	; 0x232 <DIO_InitPin+0xfc>
 1e6:	93 30       	cpi	r25, 0x03	; 3
 1e8:	a9 f1       	breq	.+106    	; 0x254 <DIO_InitPin+0x11e>
 1ea:	91 30       	cpi	r25, 0x01	; 1
 1ec:	89 f0       	breq	.+34     	; 0x210 <DIO_InitPin+0xda>
 1ee:	4a b3       	in	r20, 0x1a	; 26
 1f0:	21 e0       	ldi	r18, 0x01	; 1
 1f2:	30 e0       	ldi	r19, 0x00	; 0
 1f4:	b9 01       	movw	r22, r18
 1f6:	02 c0       	rjmp	.+4      	; 0x1fc <DIO_InitPin+0xc6>
 1f8:	66 0f       	add	r22, r22
 1fa:	77 1f       	adc	r23, r23
 1fc:	8a 95       	dec	r24
 1fe:	e2 f7       	brpl	.-8      	; 0x1f8 <DIO_InitPin+0xc2>
 200:	cb 01       	movw	r24, r22
 202:	80 95       	com	r24
 204:	94 2f       	mov	r25, r20
 206:	98 23       	and	r25, r24
 208:	9a bb       	out	0x1a, r25	; 26
 20a:	9b b3       	in	r25, 0x1b	; 27
 20c:	89 23       	and	r24, r25
 20e:	49 c0       	rjmp	.+146    	; 0x2a2 <DIO_InitPin+0x16c>
 210:	47 b3       	in	r20, 0x17	; 23
 212:	21 e0       	ldi	r18, 0x01	; 1
 214:	30 e0       	ldi	r19, 0x00	; 0
 216:	b9 01       	movw	r22, r18
 218:	02 c0       	rjmp	.+4      	; 0x21e <DIO_InitPin+0xe8>
 21a:	66 0f       	add	r22, r22
 21c:	77 1f       	adc	r23, r23
 21e:	8a 95       	dec	r24
 220:	e2 f7       	brpl	.-8      	; 0x21a <DIO_InitPin+0xe4>
 222:	cb 01       	movw	r24, r22
 224:	80 95       	com	r24
 226:	94 2f       	mov	r25, r20
 228:	98 23       	and	r25, r24
 22a:	97 bb       	out	0x17, r25	; 23
 22c:	98 b3       	in	r25, 0x18	; 24
 22e:	89 23       	and	r24, r25
 230:	4a c0       	rjmp	.+148    	; 0x2c6 <DIO_InitPin+0x190>
 232:	44 b3       	in	r20, 0x14	; 20
 234:	21 e0       	ldi	r18, 0x01	; 1
 236:	30 e0       	ldi	r19, 0x00	; 0
 238:	b9 01       	movw	r22, r18
 23a:	02 c0       	rjmp	.+4      	; 0x240 <DIO_InitPin+0x10a>
 23c:	66 0f       	add	r22, r22
 23e:	77 1f       	adc	r23, r23
 240:	8a 95       	dec	r24
 242:	e2 f7       	brpl	.-8      	; 0x23c <DIO_InitPin+0x106>
 244:	cb 01       	movw	r24, r22
 246:	80 95       	com	r24
 248:	94 2f       	mov	r25, r20
 24a:	98 23       	and	r25, r24
 24c:	94 bb       	out	0x14, r25	; 20
 24e:	95 b3       	in	r25, 0x15	; 21
 250:	89 23       	and	r24, r25
 252:	4b c0       	rjmp	.+150    	; 0x2ea <DIO_InitPin+0x1b4>
 254:	41 b3       	in	r20, 0x11	; 17
 256:	21 e0       	ldi	r18, 0x01	; 1
 258:	30 e0       	ldi	r19, 0x00	; 0
 25a:	b9 01       	movw	r22, r18
 25c:	02 c0       	rjmp	.+4      	; 0x262 <DIO_InitPin+0x12c>
 25e:	66 0f       	add	r22, r22
 260:	77 1f       	adc	r23, r23
 262:	8a 95       	dec	r24
 264:	e2 f7       	brpl	.-8      	; 0x25e <DIO_InitPin+0x128>
 266:	cb 01       	movw	r24, r22
 268:	80 95       	com	r24
 26a:	94 2f       	mov	r25, r20
 26c:	98 23       	and	r25, r24
 26e:	91 bb       	out	0x11, r25	; 17
 270:	92 b3       	in	r25, 0x12	; 18
 272:	89 23       	and	r24, r25
 274:	4c c0       	rjmp	.+152    	; 0x30e <DIO_InitPin+0x1d8>
 276:	92 30       	cpi	r25, 0x02	; 2
 278:	41 f1       	breq	.+80     	; 0x2ca <DIO_InitPin+0x194>
 27a:	93 30       	cpi	r25, 0x03	; 3
 27c:	c1 f1       	breq	.+112    	; 0x2ee <DIO_InitPin+0x1b8>
 27e:	91 30       	cpi	r25, 0x01	; 1
 280:	91 f0       	breq	.+36     	; 0x2a6 <DIO_InitPin+0x170>
 282:	4a b3       	in	r20, 0x1a	; 26
 284:	21 e0       	ldi	r18, 0x01	; 1
 286:	30 e0       	ldi	r19, 0x00	; 0
 288:	b9 01       	movw	r22, r18
 28a:	02 c0       	rjmp	.+4      	; 0x290 <DIO_InitPin+0x15a>
 28c:	66 0f       	add	r22, r22
 28e:	77 1f       	adc	r23, r23
 290:	8a 95       	dec	r24
 292:	e2 f7       	brpl	.-8      	; 0x28c <DIO_InitPin+0x156>
 294:	cb 01       	movw	r24, r22
 296:	96 2f       	mov	r25, r22
 298:	90 95       	com	r25
 29a:	94 23       	and	r25, r20
 29c:	9a bb       	out	0x1a, r25	; 26
 29e:	9b b3       	in	r25, 0x1b	; 27
 2a0:	89 2b       	or	r24, r25
 2a2:	8b bb       	out	0x1b, r24	; 27
 2a4:	35 c0       	rjmp	.+106    	; 0x310 <DIO_InitPin+0x1da>
 2a6:	47 b3       	in	r20, 0x17	; 23
 2a8:	21 e0       	ldi	r18, 0x01	; 1
 2aa:	30 e0       	ldi	r19, 0x00	; 0
 2ac:	b9 01       	movw	r22, r18
 2ae:	02 c0       	rjmp	.+4      	; 0x2b4 <DIO_InitPin+0x17e>
 2b0:	66 0f       	add	r22, r22
 2b2:	77 1f       	adc	r23, r23
 2b4:	8a 95       	dec	r24
 2b6:	e2 f7       	brpl	.-8      	; 0x2b0 <DIO_InitPin+0x17a>
 2b8:	cb 01       	movw	r24, r22
 2ba:	96 2f       	mov	r25, r22
 2bc:	90 95       	com	r25
 2be:	94 23       	and	r25, r20
 2c0:	97 bb       	out	0x17, r25	; 23
 2c2:	98 b3       	in	r25, 0x18	; 24
 2c4:	89 2b       	or	r24, r25
 2c6:	88 bb       	out	0x18, r24	; 24
 2c8:	23 c0       	rjmp	.+70     	; 0x310 <DIO_InitPin+0x1da>
 2ca:	44 b3       	in	r20, 0x14	; 20
 2cc:	21 e0       	ldi	r18, 0x01	; 1
 2ce:	30 e0       	ldi	r19, 0x00	; 0
 2d0:	b9 01       	movw	r22, r18
 2d2:	02 c0       	rjmp	.+4      	; 0x2d8 <DIO_InitPin+0x1a2>
 2d4:	66 0f       	add	r22, r22
 2d6:	77 1f       	adc	r23, r23
 2d8:	8a 95       	dec	r24
 2da:	e2 f7       	brpl	.-8      	; 0x2d4 <DIO_InitPin+0x19e>
 2dc:	cb 01       	movw	r24, r22
 2de:	96 2f       	mov	r25, r22
 2e0:	90 95       	com	r25
 2e2:	94 23       	and	r25, r20
 2e4:	94 bb       	out	0x14, r25	; 20
 2e6:	95 b3       	in	r25, 0x15	; 21
 2e8:	89 2b       	or	r24, r25
 2ea:	85 bb       	out	0x15, r24	; 21
 2ec:	11 c0       	rjmp	.+34     	; 0x310 <DIO_InitPin+0x1da>
 2ee:	41 b3       	in	r20, 0x11	; 17
 2f0:	21 e0       	ldi	r18, 0x01	; 1
 2f2:	30 e0       	ldi	r19, 0x00	; 0
 2f4:	b9 01       	movw	r22, r18
 2f6:	02 c0       	rjmp	.+4      	; 0x2fc <DIO_InitPin+0x1c6>
 2f8:	66 0f       	add	r22, r22
 2fa:	77 1f       	adc	r23, r23
 2fc:	8a 95       	dec	r24
 2fe:	e2 f7       	brpl	.-8      	; 0x2f8 <DIO_InitPin+0x1c2>
 300:	cb 01       	movw	r24, r22
 302:	96 2f       	mov	r25, r22
 304:	90 95       	com	r25
 306:	94 23       	and	r25, r20
 308:	91 bb       	out	0x11, r25	; 17
 30a:	92 b3       	in	r25, 0x12	; 18
 30c:	89 2b       	or	r24, r25
 30e:	82 bb       	out	0x12, r24	; 18
 310:	80 e0       	ldi	r24, 0x00	; 0
 312:	08 95       	ret
 314:	82 e0       	ldi	r24, 0x02	; 2
 316:	08 95       	ret
 318:	84 e0       	ldi	r24, 0x04	; 4
 31a:	08 95       	ret

0000031c <DIO_Init>:
 31c:	0f 93       	push	r16
 31e:	1f 93       	push	r17
 320:	cf 93       	push	r28
 322:	00 e6       	ldi	r16, 0x60	; 96
 324:	10 e0       	ldi	r17, 0x00	; 0
 326:	c0 e0       	ldi	r28, 0x00	; 0
 328:	f8 01       	movw	r30, r16
 32a:	61 91       	ld	r22, Z+
 32c:	8f 01       	movw	r16, r30
 32e:	8c 2f       	mov	r24, r28
 330:	0e 94 9b 00 	call	0x136	; 0x136 <DIO_InitPin>
 334:	cf 5f       	subi	r28, 0xFF	; 255
 336:	c0 32       	cpi	r28, 0x20	; 32
 338:	b9 f7       	brne	.-18     	; 0x328 <DIO_Init+0xc>
 33a:	cf 91       	pop	r28
 33c:	1f 91       	pop	r17
 33e:	0f 91       	pop	r16
 340:	08 95       	ret

00000342 <DIO_WritePin>:
 342:	80 32       	cpi	r24, 0x20	; 32
 344:	08 f0       	brcs	.+2      	; 0x348 <DIO_WritePin+0x6>
 346:	7f c0       	rjmp	.+254    	; 0x446 <__EEPROM_REGION_LENGTH__+0x46>
 348:	98 2f       	mov	r25, r24
 34a:	96 95       	lsr	r25
 34c:	96 95       	lsr	r25
 34e:	96 95       	lsr	r25
 350:	87 70       	andi	r24, 0x07	; 7
 352:	66 23       	and	r22, r22
 354:	c9 f1       	breq	.+114    	; 0x3c8 <DIO_WritePin+0x86>
 356:	61 30       	cpi	r22, 0x01	; 1
 358:	09 f0       	breq	.+2      	; 0x35c <DIO_WritePin+0x1a>
 35a:	77 c0       	rjmp	.+238    	; 0x44a <__EEPROM_REGION_LENGTH__+0x4a>
 35c:	92 30       	cpi	r25, 0x02	; 2
 35e:	e1 f0       	breq	.+56     	; 0x398 <DIO_WritePin+0x56>
 360:	93 30       	cpi	r25, 0x03	; 3
 362:	31 f1       	breq	.+76     	; 0x3b0 <DIO_WritePin+0x6e>
 364:	91 30       	cpi	r25, 0x01	; 1
 366:	61 f0       	breq	.+24     	; 0x380 <DIO_WritePin+0x3e>
 368:	4b b3       	in	r20, 0x1b	; 27
 36a:	21 e0       	ldi	r18, 0x01	; 1
 36c:	30 e0       	ldi	r19, 0x00	; 0
 36e:	b9 01       	movw	r22, r18
 370:	02 c0       	rjmp	.+4      	; 0x376 <DIO_WritePin+0x34>
 372:	66 0f       	add	r22, r22
 374:	77 1f       	adc	r23, r23
 376:	8a 95       	dec	r24
 378:	e2 f7       	brpl	.-8      	; 0x372 <DIO_WritePin+0x30>
 37a:	cb 01       	movw	r24, r22
 37c:	84 2b       	or	r24, r20
 37e:	36 c0       	rjmp	.+108    	; 0x3ec <DIO_WritePin+0xaa>
 380:	48 b3       	in	r20, 0x18	; 24
 382:	21 e0       	ldi	r18, 0x01	; 1
 384:	30 e0       	ldi	r19, 0x00	; 0
 386:	b9 01       	movw	r22, r18
 388:	02 c0       	rjmp	.+4      	; 0x38e <DIO_WritePin+0x4c>
 38a:	66 0f       	add	r22, r22
 38c:	77 1f       	adc	r23, r23
 38e:	8a 95       	dec	r24
 390:	e2 f7       	brpl	.-8      	; 0x38a <DIO_WritePin+0x48>
 392:	cb 01       	movw	r24, r22
 394:	84 2b       	or	r24, r20
 396:	38 c0       	rjmp	.+112    	; 0x408 <__EEPROM_REGION_LENGTH__+0x8>
 398:	45 b3       	in	r20, 0x15	; 21
 39a:	21 e0       	ldi	r18, 0x01	; 1
 39c:	30 e0       	ldi	r19, 0x00	; 0
 39e:	b9 01       	movw	r22, r18
 3a0:	02 c0       	rjmp	.+4      	; 0x3a6 <DIO_WritePin+0x64>
 3a2:	66 0f       	add	r22, r22
 3a4:	77 1f       	adc	r23, r23
 3a6:	8a 95       	dec	r24
 3a8:	e2 f7       	brpl	.-8      	; 0x3a2 <DIO_WritePin+0x60>
 3aa:	cb 01       	movw	r24, r22
 3ac:	84 2b       	or	r24, r20
 3ae:	3a c0       	rjmp	.+116    	; 0x424 <__EEPROM_REGION_LENGTH__+0x24>
 3b0:	42 b3       	in	r20, 0x12	; 18
 3b2:	21 e0       	ldi	r18, 0x01	; 1
 3b4:	30 e0       	ldi	r19, 0x00	; 0
 3b6:	b9 01       	movw	r22, r18
 3b8:	02 c0       	rjmp	.+4      	; 0x3be <DIO_WritePin+0x7c>
 3ba:	66 0f       	add	r22, r22
 3bc:	77 1f       	adc	r23, r23
 3be:	8a 95       	dec	r24
 3c0:	e2 f7       	brpl	.-8      	; 0x3ba <DIO_WritePin+0x78>
 3c2:	cb 01       	movw	r24, r22
 3c4:	84 2b       	or	r24, r20
 3c6:	3d c0       	rjmp	.+122    	; 0x442 <__EEPROM_REGION_LENGTH__+0x42>
 3c8:	92 30       	cpi	r25, 0x02	; 2
 3ca:	01 f1       	breq	.+64     	; 0x40c <__EEPROM_REGION_LENGTH__+0xc>
 3cc:	93 30       	cpi	r25, 0x03	; 3
 3ce:	69 f1       	breq	.+90     	; 0x42a <__EEPROM_REGION_LENGTH__+0x2a>
 3d0:	91 30       	cpi	r25, 0x01	; 1
 3d2:	71 f0       	breq	.+28     	; 0x3f0 <DIO_WritePin+0xae>
 3d4:	4b b3       	in	r20, 0x1b	; 27
 3d6:	21 e0       	ldi	r18, 0x01	; 1
 3d8:	30 e0       	ldi	r19, 0x00	; 0
 3da:	b9 01       	movw	r22, r18
 3dc:	02 c0       	rjmp	.+4      	; 0x3e2 <DIO_WritePin+0xa0>
 3de:	66 0f       	add	r22, r22
 3e0:	77 1f       	adc	r23, r23
 3e2:	8a 95       	dec	r24
 3e4:	e2 f7       	brpl	.-8      	; 0x3de <DIO_WritePin+0x9c>
 3e6:	cb 01       	movw	r24, r22
 3e8:	80 95       	com	r24
 3ea:	84 23       	and	r24, r20
 3ec:	8b bb       	out	0x1b, r24	; 27
 3ee:	1b c0       	rjmp	.+54     	; 0x426 <__EEPROM_REGION_LENGTH__+0x26>
 3f0:	48 b3       	in	r20, 0x18	; 24
 3f2:	21 e0       	ldi	r18, 0x01	; 1
 3f4:	30 e0       	ldi	r19, 0x00	; 0
 3f6:	b9 01       	movw	r22, r18
 3f8:	02 c0       	rjmp	.+4      	; 0x3fe <DIO_WritePin+0xbc>
 3fa:	66 0f       	add	r22, r22
 3fc:	77 1f       	adc	r23, r23
 3fe:	8a 95       	dec	r24
 400:	e2 f7       	brpl	.-8      	; 0x3fa <DIO_WritePin+0xb8>
 402:	cb 01       	movw	r24, r22
 404:	80 95       	com	r24
 406:	84 23       	and	r24, r20
 408:	88 bb       	out	0x18, r24	; 24
 40a:	0d c0       	rjmp	.+26     	; 0x426 <__EEPROM_REGION_LENGTH__+0x26>
 40c:	45 b3       	in	r20, 0x15	; 21
 40e:	21 e0       	ldi	r18, 0x01	; 1
 410:	30 e0       	ldi	r19, 0x00	; 0
 412:	b9 01       	movw	r22, r18
 414:	02 c0       	rjmp	.+4      	; 0x41a <__EEPROM_REGION_LENGTH__+0x1a>
 416:	66 0f       	add	r22, r22
 418:	77 1f       	adc	r23, r23
 41a:	8a 95       	dec	r24
 41c:	e2 f7       	brpl	.-8      	; 0x416 <__EEPROM_REGION_LENGTH__+0x16>
 41e:	cb 01       	movw	r24, r22
 420:	80 95       	com	r24
 422:	84 23       	and	r24, r20
 424:	85 bb       	out	0x15, r24	; 21
 426:	80 e0       	ldi	r24, 0x00	; 0
 428:	08 95       	ret
 42a:	42 b3       	in	r20, 0x12	; 18
 42c:	21 e0       	ldi	r18, 0x01	; 1
 42e:	30 e0       	ldi	r19, 0x00	; 0
 430:	b9 01       	movw	r22, r18
 432:	02 c0       	rjmp	.+4      	; 0x438 <__EEPROM_REGION_LENGTH__+0x38>
 434:	66 0f       	add	r22, r22
 436:	77 1f       	adc	r23, r23
 438:	8a 95       	dec	r24
 43a:	e2 f7       	brpl	.-8      	; 0x434 <__EEPROM_REGION_LENGTH__+0x34>
 43c:	cb 01       	movw	r24, r22
 43e:	80 95       	com	r24
 440:	84 23       	and	r24, r20
 442:	82 bb       	out	0x12, r24	; 18
 444:	f0 cf       	rjmp	.-32     	; 0x426 <__EEPROM_REGION_LENGTH__+0x26>
 446:	82 e0       	ldi	r24, 0x02	; 2
 448:	08 95       	ret
 44a:	83 e0       	ldi	r24, 0x03	; 3
 44c:	08 95       	ret

0000044e <EXI_Enable>:
 44e:	81 30       	cpi	r24, 0x01	; 1
 450:	39 f0       	breq	.+14     	; 0x460 <EXI_Enable+0x12>
 452:	18 f0       	brcs	.+6      	; 0x45a <EXI_Enable+0xc>
 454:	82 30       	cpi	r24, 0x02	; 2
 456:	39 f0       	breq	.+14     	; 0x466 <EXI_Enable+0x18>
 458:	08 95       	ret
 45a:	8b b7       	in	r24, 0x3b	; 59
 45c:	80 64       	ori	r24, 0x40	; 64
 45e:	05 c0       	rjmp	.+10     	; 0x46a <EXI_Enable+0x1c>
 460:	8b b7       	in	r24, 0x3b	; 59
 462:	80 68       	ori	r24, 0x80	; 128
 464:	02 c0       	rjmp	.+4      	; 0x46a <EXI_Enable+0x1c>
 466:	8b b7       	in	r24, 0x3b	; 59
 468:	80 62       	ori	r24, 0x20	; 32
 46a:	8b bf       	out	0x3b, r24	; 59
 46c:	08 95       	ret

0000046e <EXI_TriggerEdge>:
 46e:	81 30       	cpi	r24, 0x01	; 1
 470:	f1 f0       	breq	.+60     	; 0x4ae <EXI_TriggerEdge+0x40>
 472:	18 f0       	brcs	.+6      	; 0x47a <EXI_TriggerEdge+0xc>
 474:	82 30       	cpi	r24, 0x02	; 2
 476:	b1 f1       	breq	.+108    	; 0x4e4 <EXI_TriggerEdge+0x76>
 478:	08 95       	ret
 47a:	61 30       	cpi	r22, 0x01	; 1
 47c:	49 f0       	breq	.+18     	; 0x490 <EXI_TriggerEdge+0x22>
 47e:	28 f0       	brcs	.+10     	; 0x48a <EXI_TriggerEdge+0x1c>
 480:	62 30       	cpi	r22, 0x02	; 2
 482:	61 f0       	breq	.+24     	; 0x49c <EXI_TriggerEdge+0x2e>
 484:	63 30       	cpi	r22, 0x03	; 3
 486:	69 f0       	breq	.+26     	; 0x4a2 <EXI_TriggerEdge+0x34>
 488:	08 95       	ret
 48a:	85 b7       	in	r24, 0x35	; 53
 48c:	8e 7f       	andi	r24, 0xFE	; 254
 48e:	02 c0       	rjmp	.+4      	; 0x494 <EXI_TriggerEdge+0x26>
 490:	85 b7       	in	r24, 0x35	; 53
 492:	81 60       	ori	r24, 0x01	; 1
 494:	85 bf       	out	0x35, r24	; 53
 496:	85 b7       	in	r24, 0x35	; 53
 498:	8d 7f       	andi	r24, 0xFD	; 253
 49a:	22 c0       	rjmp	.+68     	; 0x4e0 <EXI_TriggerEdge+0x72>
 49c:	85 b7       	in	r24, 0x35	; 53
 49e:	8e 7f       	andi	r24, 0xFE	; 254
 4a0:	02 c0       	rjmp	.+4      	; 0x4a6 <EXI_TriggerEdge+0x38>
 4a2:	85 b7       	in	r24, 0x35	; 53
 4a4:	81 60       	ori	r24, 0x01	; 1
 4a6:	85 bf       	out	0x35, r24	; 53
 4a8:	85 b7       	in	r24, 0x35	; 53
 4aa:	82 60       	ori	r24, 0x02	; 2
 4ac:	19 c0       	rjmp	.+50     	; 0x4e0 <EXI_TriggerEdge+0x72>
 4ae:	61 30       	cpi	r22, 0x01	; 1
 4b0:	49 f0       	breq	.+18     	; 0x4c4 <EXI_TriggerEdge+0x56>
 4b2:	28 f0       	brcs	.+10     	; 0x4be <EXI_TriggerEdge+0x50>
 4b4:	62 30       	cpi	r22, 0x02	; 2
 4b6:	61 f0       	breq	.+24     	; 0x4d0 <EXI_TriggerEdge+0x62>
 4b8:	63 30       	cpi	r22, 0x03	; 3
 4ba:	69 f0       	breq	.+26     	; 0x4d6 <EXI_TriggerEdge+0x68>
 4bc:	08 95       	ret
 4be:	85 b7       	in	r24, 0x35	; 53
 4c0:	8b 7f       	andi	r24, 0xFB	; 251
 4c2:	02 c0       	rjmp	.+4      	; 0x4c8 <EXI_TriggerEdge+0x5a>
 4c4:	85 b7       	in	r24, 0x35	; 53
 4c6:	84 60       	ori	r24, 0x04	; 4
 4c8:	85 bf       	out	0x35, r24	; 53
 4ca:	85 b7       	in	r24, 0x35	; 53
 4cc:	87 7f       	andi	r24, 0xF7	; 247
 4ce:	08 c0       	rjmp	.+16     	; 0x4e0 <EXI_TriggerEdge+0x72>
 4d0:	85 b7       	in	r24, 0x35	; 53
 4d2:	8b 7f       	andi	r24, 0xFB	; 251
 4d4:	02 c0       	rjmp	.+4      	; 0x4da <EXI_TriggerEdge+0x6c>
 4d6:	85 b7       	in	r24, 0x35	; 53
 4d8:	84 60       	ori	r24, 0x04	; 4
 4da:	85 bf       	out	0x35, r24	; 53
 4dc:	85 b7       	in	r24, 0x35	; 53
 4de:	88 60       	ori	r24, 0x08	; 8
 4e0:	85 bf       	out	0x35, r24	; 53
 4e2:	08 95       	ret
 4e4:	62 30       	cpi	r22, 0x02	; 2
 4e6:	29 f0       	breq	.+10     	; 0x4f2 <EXI_TriggerEdge+0x84>
 4e8:	63 30       	cpi	r22, 0x03	; 3
 4ea:	19 f4       	brne	.+6      	; 0x4f2 <EXI_TriggerEdge+0x84>
 4ec:	84 b7       	in	r24, 0x34	; 52
 4ee:	80 64       	ori	r24, 0x40	; 64
 4f0:	02 c0       	rjmp	.+4      	; 0x4f6 <EXI_TriggerEdge+0x88>
 4f2:	84 b7       	in	r24, 0x34	; 52
 4f4:	8f 7b       	andi	r24, 0xBF	; 191
 4f6:	84 bf       	out	0x34, r24	; 52
 4f8:	08 95       	ret

000004fa <EXI_SetCallBack>:
 4fa:	81 30       	cpi	r24, 0x01	; 1
 4fc:	49 f0       	breq	.+18     	; 0x510 <EXI_SetCallBack+0x16>
 4fe:	18 f0       	brcs	.+6      	; 0x506 <EXI_SetCallBack+0xc>
 500:	82 30       	cpi	r24, 0x02	; 2
 502:	59 f0       	breq	.+22     	; 0x51a <EXI_SetCallBack+0x20>
 504:	08 95       	ret
 506:	70 93 87 00 	sts	0x0087, r23	; 0x800087 <INT0_Fptr+0x1>
 50a:	60 93 86 00 	sts	0x0086, r22	; 0x800086 <INT0_Fptr>
 50e:	08 95       	ret
 510:	70 93 85 00 	sts	0x0085, r23	; 0x800085 <INT1_Fptr+0x1>
 514:	60 93 84 00 	sts	0x0084, r22	; 0x800084 <INT1_Fptr>
 518:	08 95       	ret
 51a:	70 93 83 00 	sts	0x0083, r23	; 0x800083 <INT2_Fptr+0x1>
 51e:	60 93 82 00 	sts	0x0082, r22	; 0x800082 <INT2_Fptr>
 522:	08 95       	ret

00000524 <__vector_1>:
 524:	1f 92       	push	r1
 526:	0f 92       	push	r0
 528:	0f b6       	in	r0, 0x3f	; 63
 52a:	0f 92       	push	r0
 52c:	11 24       	eor	r1, r1
 52e:	2f 93       	push	r18
 530:	3f 93       	push	r19
 532:	4f 93       	push	r20
 534:	5f 93       	push	r21
 536:	6f 93       	push	r22
 538:	7f 93       	push	r23
 53a:	8f 93       	push	r24
 53c:	9f 93       	push	r25
 53e:	af 93       	push	r26
 540:	bf 93       	push	r27
 542:	ef 93       	push	r30
 544:	ff 93       	push	r31
 546:	e0 91 86 00 	lds	r30, 0x0086	; 0x800086 <INT0_Fptr>
 54a:	f0 91 87 00 	lds	r31, 0x0087	; 0x800087 <INT0_Fptr+0x1>
 54e:	30 97       	sbiw	r30, 0x00	; 0
 550:	09 f0       	breq	.+2      	; 0x554 <__vector_1+0x30>
 552:	09 95       	icall
 554:	ff 91       	pop	r31
 556:	ef 91       	pop	r30
 558:	bf 91       	pop	r27
 55a:	af 91       	pop	r26
 55c:	9f 91       	pop	r25
 55e:	8f 91       	pop	r24
 560:	7f 91       	pop	r23
 562:	6f 91       	pop	r22
 564:	5f 91       	pop	r21
 566:	4f 91       	pop	r20
 568:	3f 91       	pop	r19
 56a:	2f 91       	pop	r18
 56c:	0f 90       	pop	r0
 56e:	0f be       	out	0x3f, r0	; 63
 570:	0f 90       	pop	r0
 572:	1f 90       	pop	r1
 574:	18 95       	reti

00000576 <__vector_2>:
 576:	1f 92       	push	r1
 578:	0f 92       	push	r0
 57a:	0f b6       	in	r0, 0x3f	; 63
 57c:	0f 92       	push	r0
 57e:	11 24       	eor	r1, r1
 580:	2f 93       	push	r18
 582:	3f 93       	push	r19
 584:	4f 93       	push	r20
 586:	5f 93       	push	r21
 588:	6f 93       	push	r22
 58a:	7f 93       	push	r23
 58c:	8f 93       	push	r24
 58e:	9f 93       	push	r25
 590:	af 93       	push	r26
 592:	bf 93       	push	r27
 594:	ef 93       	push	r30
 596:	ff 93       	push	r31
 598:	e0 91 84 00 	lds	r30, 0x0084	; 0x800084 <INT1_Fptr>
 59c:	f0 91 85 00 	lds	r31, 0x0085	; 0x800085 <INT1_Fptr+0x1>
 5a0:	30 97       	sbiw	r30, 0x00	; 0
 5a2:	09 f0       	breq	.+2      	; 0x5a6 <__vector_2+0x30>
 5a4:	09 95       	icall
 5a6:	ff 91       	pop	r31
 5a8:	ef 91       	pop	r30
 5aa:	bf 91       	pop	r27
 5ac:	af 91       	pop	r26
 5ae:	9f 91       	pop	r25
 5b0:	8f 91       	pop	r24
 5b2:	7f 91       	pop	r23
 5b4:	6f 91       	pop	r22
 5b6:	5f 91       	pop	r21
 5b8:	4f 91       	pop	r20
 5ba:	3f 91       	pop	r19
 5bc:	2f 91       	pop	r18
 5be:	0f 90       	pop	r0
 5c0:	0f be       	out	0x3f, r0	; 63
 5c2:	0f 90       	pop	r0
 5c4:	1f 90       	pop	r1
 5c6:	18 95       	reti

000005c8 <__vector_3>:
 5c8:	1f 92       	push	r1
 5ca:	0f 92       	push	r0
 5cc:	0f b6       	in	r0, 0x3f	; 63
 5ce:	0f 92       	push	r0
 5d0:	11 24       	eor	r1, r1
 5d2:	2f 93       	push	r18
 5d4:	3f 93       	push	r19
 5d6:	4f 93       	push	r20
 5d8:	5f 93       	push	r21
 5da:	6f 93       	push	r22
 5dc:	7f 93       	push	r23
 5de:	8f 93       	push	r24
 5e0:	9f 93       	push	r25
 5e2:	af 93       	push	r26
 5e4:	bf 93       	push	r27
 5e6:	ef 93       	push	r30
 5e8:	ff 93       	push	r31
 5ea:	e0 91 82 00 	lds	r30, 0x0082	; 0x800082 <INT2_Fptr>
 5ee:	f0 91 83 00 	lds	r31, 0x0083	; 0x800083 <INT2_Fptr+0x1>
 5f2:	30 97       	sbiw	r30, 0x00	; 0
 5f4:	09 f0       	breq	.+2      	; 0x5f8 <__vector_3+0x30>
 5f6:	09 95       	icall
 5f8:	ff 91       	pop	r31
 5fa:	ef 91       	pop	r30
 5fc:	bf 91       	pop	r27
 5fe:	af 91       	pop	r26
 600:	9f 91       	pop	r25
 602:	8f 91       	pop	r24
 604:	7f 91       	pop	r23
 606:	6f 91       	pop	r22
 608:	5f 91       	pop	r21
 60a:	4f 91       	pop	r20
 60c:	3f 91       	pop	r19
 60e:	2f 91       	pop	r18
 610:	0f 90       	pop	r0
 612:	0f be       	out	0x3f, r0	; 63
 614:	0f 90       	pop	r0
 616:	1f 90       	pop	r1
 618:	18 95       	reti

0000061a <_exit>:
 61a:	f8 94       	cli

0000061c <__stop_program>:
 61c:	ff cf       	rjmp	.-2      	; 0x61c <__stop_program>
